target datalayout = "e-m:e-p270:32:32-p271:32:32-p272:64:64-i64:64-i128:128-f80:128-n8:16:32:64-S128"
target triple = "x86_64-pc-linux-gnu"

%struct.async = type { ptr, ptr, i32, i32, i64, i32, i32, i32 }

@.str = private unnamed_addr constant [14 x i8] c"run-command.c\00", align 1
@main_thread_set = internal global i32 0, align 4
@main_thread = internal global i64 0, align 8
@async_key = internal global i32 0, align 4

; Function Attrs: inlinehint nounwind willreturn memory(none) uwtable
define available_externally i32 @pthread_equal(i64 noundef %0, i64 noundef %1) #10 {
  %3 = alloca i64, align 8
  %4 = alloca i64, align 8
  store i64 %0, ptr %3, align 8, !tbaa !91
  store i64 %1, ptr %4, align 8, !tbaa !91
  %5 = load i64, ptr %3, align 8, !tbaa !91
  %6 = load i64, ptr %4, align 8, !tbaa !91
  %7 = icmp eq i64 %5, %6
  %8 = zext i1 %7 to i32
  ret i32 %8
}

; Function Attrs: nounwind uwtable
define dso_local i32 @in_async() #0 {
  %1 = alloca i32, align 4
  %2 = load i32, ptr @main_thread_set, align 4, !tbaa !16
  %3 = icmp ne i32 %2, 0
  br i1 %3, label %5, label %4

4:                                                ; preds = %0
  store i32 0, ptr %1, align 4
  br label %12

5:                                                ; preds = %0
  %6 = load i64, ptr @main_thread, align 8, !tbaa !91
  %7 = call i64 @pthread_self() #15
  %8 = call i32 @pthread_equal(i64 noundef %6, i64 noundef %7) #15
  %9 = icmp ne i32 %8, 0
  %10 = xor i1 %9, true
  %11 = zext i1 %10 to i32
  store i32 %11, ptr %1, align 4
  br label %12

12:                                               ; preds = %5, %4
  %13 = load i32, ptr %1, align 4
  ret i32 %13
}

; Function Attrs: noreturn nounwind uwtable
define internal void @die_async(ptr noundef %0, ptr noundef %1) #8 {
  %3 = alloca ptr, align 8
  %4 = alloca ptr, align 8
  %5 = alloca ptr, align 8
  %6 = alloca ptr, align 8
  store ptr %0, ptr %3, align 8, !tbaa !9
  store ptr %1, ptr %4, align 8, !tbaa !73
  call void @llvm.lifetime.start.p0(i64 8, ptr %5) #13
  %7 = call ptr @get_die_message_routine()
  store ptr %7, ptr %5, align 8, !tbaa !90
  %8 = load ptr, ptr %5, align 8, !tbaa !90
  %9 = load ptr, ptr %3, align 8, !tbaa !9
  %10 = load ptr, ptr %4, align 8, !tbaa !73
  call void %8(ptr noundef %9, ptr noundef %10)
  %11 = call i32 @in_async()
  %12 = icmp ne i32 %11, 0
  br i1 %12, label %13, label %36

13:                                               ; preds = %2
  call void @llvm.lifetime.start.p0(i64 8, ptr %6) #13
  %14 = load i32, ptr @async_key, align 4, !tbaa !16
  %15 = call ptr @pthread_getspecific(i32 noundef %14) #13
  store ptr %15, ptr %6, align 8, !tbaa !92
  %16 = load ptr, ptr %6, align 8, !tbaa !92
  %17 = getelementptr inbounds nuw %struct.async, ptr %16, i32 0, i32 5
  %18 = load i32, ptr %17, align 8, !tbaa !97
  %19 = icmp sge i32 %18, 0
  br i1 %19, label %20, label %25

20:                                               ; preds = %13
  %21 = load ptr, ptr %6, align 8, !tbaa !92
  %22 = getelementptr inbounds nuw %struct.async, ptr %21, i32 0, i32 5
  %23 = load i32, ptr %22, align 8, !tbaa !97
  %24 = call i32 @close(i32 noundef %23)
  br label %25

25:                                               ; preds = %20, %13
  %26 = load ptr, ptr %6, align 8, !tbaa !92
  %27 = getelementptr inbounds nuw %struct.async, ptr %26, i32 0, i32 6
  %28 = load i32, ptr %27, align 4, !tbaa !98
  %29 = icmp sge i32 %28, 0
  br i1 %29, label %30, label %35

30:                                               ; preds = %25
  %31 = load ptr, ptr %6, align 8, !tbaa !92
  %32 = getelementptr inbounds nuw %struct.async, ptr %31, i32 0, i32 6
  %33 = load i32, ptr %32, align 4, !tbaa !98
  %34 = call i32 @close(i32 noundef %33)
  br label %35

35:                                               ; preds = %30, %25
  call void @pthread_exit(ptr noundef inttoptr (i64 128 to ptr)) #16
  unreachable

36:                                               ; preds = %2
  %37 = call i32 @common_exit(ptr noundef @.str, i32 noundef 1059, i32 noundef 128)
  call void @exit(i32 noundef %37) #17
  unreachable
}