; Function Attrs: noreturn nounwind uwtable
define internal void @die_async(ptr noundef %0, ptr noundef %1) #11 {
  %3 = tail call ptr @get_die_message_routine() #21
  tail call void %3(ptr noundef %0, ptr noundef %1) #21
  %.b.i = load i1, ptr @main_thread_set, align 4
  br i1 %.b.i, label %in_async.exit, label %in_async.exit.thread

in_async.exit:                                    ; preds = %2
  %4 = load i64, ptr @main_thread, align 8, !tbaa !82
  %5 = tail call i64 @pthread_self() #23
  %.not10 = icmp eq i64 %4, %5
  br i1 %.not10, label %in_async.exit.thread, label %6

6:                                                ; preds = %in_async.exit
  %7 = load i32, ptr @async_key, align 4, !tbaa !18
  %8 = tail call ptr @pthread_getspecific(i32 noundef %7) #21
  %9 = getelementptr inbounds nuw i8, ptr %8, i64 32
  %10 = load i32, ptr %9, align 8, !tbaa !86
  %11 = icmp sgt i32 %10, -1
  br i1 %11, label %12, label %14

12:                                               ; preds = %6
  %13 = tail call i32 @close(i32 noundef %10) #21
  br label %14

14:                                               ; preds = %12, %6
  %15 = getelementptr inbounds nuw i8, ptr %8, i64 36
  %16 = load i32, ptr %15, align 4, !tbaa !87
  %17 = icmp sgt i32 %16, -1
  br i1 %17, label %18, label %20

18:                                               ; preds = %14
  %19 = tail call i32 @close(i32 noundef %16) #21
  br label %20

20:                                               ; preds = %18, %14
  tail call void @pthread_exit(ptr noundef nonnull inttoptr (i64 128 to ptr)) #24
  unreachable

in_async.exit.thread:                             ; preds = %2, %in_async.exit
  %21 = tail call i32 @common_exit(ptr noundef nonnull @.str, i32 noundef 1059, i32 noundef 128) #21
  tail call void @exit(i32 noundef %21) #24
  unreachable
}